target datalayout = "e-m:e-p270:32:32-p271:32:32-p272:64:64-i64:64-i128:128-f80:128-n8:16:32:64-S128"
target triple = "x86_64-pc-linux-gnu"

%struct.Abc_Frame_t_ = type { ptr, ptr, ptr, ptr, ptr, ptr, ptr, ptr, ptr, ptr, i32, i32, i32, i32, i32, ptr, float, float, i32, i32, ptr, ptr, ptr, double, double, ptr, ptr, ptr, ptr, ptr, ptr, ptr, ptr, ptr, ptr, ptr, ptr, float, ptr, i32, ptr, ptr, ptr, ptr, ptr, i32, i32, i32, i32, i32, i32, ptr, ptr, ptr, ptr, ptr, ptr, i32, i32, ptr, ptr, ptr, ptr, ptr, ptr, ptr, ptr, ptr, ptr, ptr, ptr, ptr, ptr, ptr, ptr, ptr, ptr, ptr, ptr, ptr, ptr, ptr, ptr, ptr, ptr, ptr, ptr, ptr, ptr }
%struct.Bac_Man_t_ = type { ptr, ptr, ptr, ptr, i32, i32, ptr, ptr, ptr, %struct.Vec_Int_t_, %struct.Vec_Int_t_, %struct.Vec_Int_t_, %struct.Vec_Int_t_, ptr, ptr, [4 x i32], [73 x ptr], [73 x ptr] }
%struct.Vec_Int_t_ = type { i32, i32, ptr }
%struct.Cec_ParCec_t_ = type { i32, i32, i32, i32, i32, i32, i32, i32, i32 }

@globalUtilOptind = external global i32, align 4
@.str.15 = private unnamed_addr constant [2 x i8] c"r\00", align 1
@.str.16 = private unnamed_addr constant [30 x i8] c"Cannot open input file \22%s\22. \00", align 1
@.str.17 = private unnamed_addr constant [3 x i8] c".v\00", align 1
@.str.18 = private unnamed_addr constant [6 x i8] c".blif\00", align 1
@.str.21 = private unnamed_addr constant [19 x i8] c"Did you mean \22%s\22?\00", align 1
@.str.22 = private unnamed_addr constant [2 x i8] c"\0A\00", align 1
@.str.23 = private unnamed_addr constant [5 x i8] c"blif\00", align 1
@.str.24 = private unnamed_addr constant [2 x i8] c"v\00", align 1
@.str.31 = private unnamed_addr constant [4 x i8] c"yes\00", align 1
@.str.32 = private unnamed_addr constant [3 x i8] c"no\00", align 1
@.str.34 = private unnamed_addr constant [62 x i8] c"\09-v     : toggle printing verbose information [default = %s]\0A\00", align 1
@.str.35 = private unnamed_addr constant [35 x i8] c"\09-h     : print the command usage\0A\00", align 1
@.str.78 = private unnamed_addr constant [3 x i8] c"vh\00", align 1
@.str.81 = private unnamed_addr constant [47 x i8] c"Bac_CommandCec(): There is no current design.\0A\00", align 1
@.str.82 = private unnamed_addr constant [45 x i8] c"File name is not given on the command line.\0A\00", align 1
@.str.83 = private unnamed_addr constant [52 x i8] c"Extracting AIG from the current design has failed.\0A\00", align 1
@.str.84 = private unnamed_addr constant [53 x i8] c"Extracting AIG from the original design has failed.\0A\00", align 1
@.str.85 = private unnamed_addr constant [51 x i8] c"The verification miter is written into file \22%s\22.\0A\00", align 1
@.str.86 = private unnamed_addr constant [14 x i8] c"cec_miter.aig\00", align 1
@.str.87 = private unnamed_addr constant [20 x i8] c"usage: @_cec [-vh]\0A\00", align 1
@.str.88 = private unnamed_addr constant [46 x i8] c"\09         combinational equivalence checking\0A\00", align 1

; Function Attrs: inlinehint nounwind uwtable
define internal ptr @Bac_AbcGetMan(ptr noundef %0) #3 {
  %2 = alloca ptr, align 8
  store ptr %0, ptr %2, align 8, !tbaa !10
  %3 = load ptr, ptr %2, align 8, !tbaa !10
  %4 = getelementptr inbounds nuw %struct.Abc_Frame_t_, ptr %3, i32 0, i32 74
  %5 = load ptr, ptr %4, align 8, !tbaa !12
  ret ptr %5
}

; Function Attrs: nounwind uwtable
define internal i32 @Bac_CommandCec(ptr noundef %0, i32 noundef %1, ptr noundef %2) #0 {
  %4 = alloca i32, align 4
  %5 = alloca ptr, align 8
  %6 = alloca i32, align 4
  %7 = alloca ptr, align 8
  %8 = alloca ptr, align 8
  %9 = alloca ptr, align 8
  %10 = alloca ptr, align 8
  %11 = alloca ptr, align 8
  %12 = alloca %struct.Cec_ParCec_t_, align 4
  %13 = alloca ptr, align 8
  %14 = alloca ptr, align 8
  %15 = alloca ptr, align 8
  %16 = alloca ptr, align 8
  %17 = alloca ptr, align 8
  %18 = alloca i32, align 4
  %19 = alloca i32, align 4
  %20 = alloca i32, align 4
  %21 = alloca ptr, align 8
  %22 = alloca i32, align 4
  store ptr %0, ptr %5, align 8, !tbaa !10
  store i32 %1, ptr %6, align 4, !tbaa !28
  store ptr %2, ptr %7, align 8, !tbaa !29
  call void @llvm.lifetime.start.p0(i64 8, ptr %8) #10
  %23 = load ptr, ptr %5, align 8, !tbaa !10
  %24 = call ptr @Bac_AbcGetMan(ptr noundef %23)
  store ptr %24, ptr %8, align 8, !tbaa !8
  call void @llvm.lifetime.start.p0(i64 8, ptr %9) #10
  call void @llvm.lifetime.start.p0(i64 8, ptr %10) #10
  call void @llvm.lifetime.start.p0(i64 8, ptr %11) #10
  call void @llvm.lifetime.start.p0(i64 36, ptr %12) #10
  call void @llvm.lifetime.start.p0(i64 8, ptr %13) #10
  store ptr %12, ptr %13, align 8, !tbaa !57
  call void @llvm.lifetime.start.p0(i64 8, ptr %14) #10
  call void @llvm.lifetime.start.p0(i64 8, ptr %15) #10
  call void @llvm.lifetime.start.p0(i64 8, ptr %16) #10
  call void @llvm.lifetime.start.p0(i64 8, ptr %17) #10
  call void @llvm.lifetime.start.p0(i64 4, ptr %18) #10
  call void @llvm.lifetime.start.p0(i64 4, ptr %19) #10
  call void @llvm.lifetime.start.p0(i64 4, ptr %20) #10
  store i32 0, ptr %20, align 4, !tbaa !28
  call void @llvm.lifetime.start.p0(i64 8, ptr %21) #10
  %25 = load ptr, ptr %13, align 8, !tbaa !57
  call void @Cec_ManCecSetDefaultParams(ptr noundef %25)
  call void (...) @Extra_UtilGetoptReset()
  br label %26

26:                                               ; preds = %40, %3
  %27 = load i32, ptr %6, align 4, !tbaa !28
  %28 = load ptr, ptr %7, align 8, !tbaa !29
  %29 = call i32 @Extra_UtilGetopt(i32 noundef %27, ptr noundef %28, ptr noundef @.str.78)
  store i32 %29, ptr %18, align 4, !tbaa !28
  %30 = icmp ne i32 %29, -1
  br i1 %30, label %31, label %41

31:                                               ; preds = %26
  %32 = load i32, ptr %18, align 4, !tbaa !28
  switch i32 %32, label %39 [
    i32 118, label %33
    i32 104, label %38
  ]

33:                                               ; preds = %31
  %34 = load ptr, ptr %13, align 8, !tbaa !57
  %35 = getelementptr inbounds nuw %struct.Cec_ParCec_t_, ptr %34, i32 0, i32 7
  %36 = load i32, ptr %35, align 4, !tbaa !59
  %37 = xor i32 %36, 1
  store i32 %37, ptr %35, align 4, !tbaa !59
  br label %40

38:                                               ; preds = %31
  br label %160

39:                                               ; preds = %31
  br label %160

40:                                               ; preds = %33
  br label %26, !llvm.loop !61

41:                                               ; preds = %26
  %42 = load ptr, ptr %8, align 8, !tbaa !8
  %43 = icmp eq ptr %42, null
  br i1 %43, label %44, label %45

44:                                               ; preds = %41
  call void (i32, ptr, ...) @Abc_Print(i32 noundef 1, ptr noundef @.str.81)
  store i32 0, ptr %4, align 4
  store i32 1, ptr %22, align 4
  br label %166

45:                                               ; preds = %41
  %46 = load ptr, ptr %7, align 8, !tbaa !29
  %47 = load i32, ptr @globalUtilOptind, align 4, !tbaa !28
  %48 = sext i32 %47 to i64
  %49 = getelementptr inbounds ptr, ptr %46, i64 %48
  store ptr %49, ptr %17, align 8, !tbaa !29
  %50 = load i32, ptr %6, align 4, !tbaa !28
  %51 = load i32, ptr @globalUtilOptind, align 4, !tbaa !28
  %52 = sub nsw i32 %50, %51
  store i32 %52, ptr %19, align 4, !tbaa !28
  %53 = load i32, ptr %19, align 4, !tbaa !28
  %54 = icmp ne i32 %53, 1
  br i1 %54, label %55, label %65

55:                                               ; preds = %45
  %56 = load ptr, ptr %8, align 8, !tbaa !8
  %57 = getelementptr inbounds nuw %struct.Bac_Man_t_, ptr %56, i32 0, i32 1
  %58 = load ptr, ptr %57, align 8, !tbaa !36
  %59 = icmp eq ptr %58, null
  br i1 %59, label %60, label %61

60:                                               ; preds = %55
  call void (i32, ptr, ...) @Abc_Print(i32 noundef -1, ptr noundef @.str.82)
  store i32 1, ptr %4, align 4
  store i32 1, ptr %22, align 4
  br label %166

61:                                               ; preds = %55
  %62 = load ptr, ptr %8, align 8, !tbaa !8
  %63 = getelementptr inbounds nuw %struct.Bac_Man_t_, ptr %62, i32 0, i32 1
  %64 = load ptr, ptr %63, align 8, !tbaa !36
  store ptr %64, ptr %15, align 8, !tbaa !31
  br label %69

65:                                               ; preds = %45
  %66 = load ptr, ptr %17, align 8, !tbaa !29
  %67 = getelementptr inbounds ptr, ptr %66, i64 0
  %68 = load ptr, ptr %67, align 8, !tbaa !31
  store ptr %68, ptr %15, align 8, !tbaa !31
  br label %69

69:                                               ; preds = %65, %61
  %70 = load ptr, ptr %15, align 8, !tbaa !31
  store ptr %70, ptr %16, align 8, !tbaa !31
  br label %71

71:                                               ; preds = %83, %69
  %72 = load ptr, ptr %16, align 8, !tbaa !31
  %73 = load i8, ptr %72, align 1, !tbaa !62
  %74 = icmp ne i8 %73, 0
  br i1 %74, label %75, label %86

75:                                               ; preds = %71
  %76 = load ptr, ptr %16, align 8, !tbaa !31
  %77 = load i8, ptr %76, align 1, !tbaa !62
  %78 = sext i8 %77 to i32
  %79 = icmp eq i32 %78, 62
  br i1 %79, label %80, label %82

80:                                               ; preds = %75
  %81 = load ptr, ptr %16, align 8, !tbaa !31
  store i8 92, ptr %81, align 1, !tbaa !62
  br label %82

82:                                               ; preds = %80, %75
  br label %83

83:                                               ; preds = %82
  %84 = load ptr, ptr %16, align 8, !tbaa !31
  %85 = getelementptr inbounds nuw i8, ptr %84, i32 1
  store ptr %85, ptr %16, align 8, !tbaa !31
  br label %71, !llvm.loop !63

86:                                               ; preds = %71
  %87 = load ptr, ptr %15, align 8, !tbaa !31
  %88 = call noalias ptr @fopen(ptr noundef %87, ptr noundef @.str.15)
  store ptr %88, ptr %21, align 8, !tbaa !34
  %89 = icmp eq ptr %88, null
  br i1 %89, label %90, label %98

90:                                               ; preds = %86
  %91 = load ptr, ptr %15, align 8, !tbaa !31
  call void (i32, ptr, ...) @Abc_Print(i32 noundef -1, ptr noundef @.str.16, ptr noundef %91)
  %92 = load ptr, ptr %15, align 8, !tbaa !31
  %93 = call ptr @Extra_FileGetSimilarName(ptr noundef %92, ptr noundef @.str.17, ptr noundef @.str.18, ptr noundef null, ptr noundef null, ptr noundef null)
  store ptr %93, ptr %15, align 8, !tbaa !31
  %94 = icmp ne ptr %93, null
  br i1 %94, label %95, label %97

95:                                               ; preds = %90
  %96 = load ptr, ptr %15, align 8, !tbaa !31
  call void (i32, ptr, ...) @Abc_Print(i32 noundef 1, ptr noundef @.str.21, ptr noundef %96)
  br label %97

97:                                               ; preds = %95, %90
  call void (i32, ptr, ...) @Abc_Print(i32 noundef 1, ptr noundef @.str.22)
  store i32 1, ptr %4, align 4
  store i32 1, ptr %22, align 4
  br label %166

98:                                               ; preds = %86
  %99 = load ptr, ptr %21, align 8, !tbaa !34
  %100 = call i32 @fclose(ptr noundef %99)
  %101 = load ptr, ptr %8, align 8, !tbaa !8
  %102 = call ptr @Bac_ManExtract(ptr noundef %101, i32 noundef 0, i32 noundef 0)
  store ptr %102, ptr %9, align 8, !tbaa !51
  %103 = load ptr, ptr %9, align 8, !tbaa !51
  %104 = icmp eq ptr %103, null
  br i1 %104, label %105, label %106

105:                                              ; preds = %98
  call void (i32, ptr, ...) @Abc_Print(i32 noundef -1, ptr noundef @.str.83)
  store i32 0, ptr %4, align 4
  store i32 1, ptr %22, align 4
  br label %166

106:                                              ; preds = %98
  %107 = load ptr, ptr %15, align 8, !tbaa !31
  %108 = call ptr @Extra_FileNameExtension(ptr noundef %107)
  %109 = call i32 @strcmp(ptr noundef %108, ptr noundef @.str.23) #11
  %110 = icmp ne i32 %109, 0
  br i1 %110, label %114, label %111

111:                                              ; preds = %106
  %112 = load ptr, ptr %15, align 8, !tbaa !31
  %113 = call ptr @Psr_ManReadBlif(ptr noundef %112)
  store ptr %113, ptr %14, align 8, !tbaa !3
  br label %124

114:                                              ; preds = %106
  %115 = load ptr, ptr %15, align 8, !tbaa !31
  %116 = call ptr @Extra_FileNameExtension(ptr noundef %115)
  %117 = call i32 @strcmp(ptr noundef %116, ptr noundef @.str.24) #11
  %118 = icmp ne i32 %117, 0
  br i1 %118, label %122, label %119

119:                                              ; preds = %114
  %120 = load ptr, ptr %15, align 8, !tbaa !31
  %121 = call ptr @Psr_ManReadVerilog(ptr noundef %120)
  store ptr %121, ptr %14, align 8, !tbaa !3
  br label %123

122:                                              ; preds = %114
  br label %123

123:                                              ; preds = %122, %119
  br label %124

124:                                              ; preds = %123, %111
  %125 = load ptr, ptr %15, align 8, !tbaa !31
  %126 = load ptr, ptr %14, align 8, !tbaa !3
  %127 = call ptr @Psr_ManBuildCba(ptr noundef %125, ptr noundef %126)
  store ptr %127, ptr %8, align 8, !tbaa !8
  %128 = load ptr, ptr %14, align 8, !tbaa !3
  call void @Psr_ManVecFree(ptr noundef %128)
  %129 = load ptr, ptr %8, align 8, !tbaa !8
  %130 = call ptr @Bac_ManExtract(ptr noundef %129, i32 noundef 0, i32 noundef 0)
  store ptr %130, ptr %10, align 8, !tbaa !51
  %131 = load ptr, ptr %8, align 8, !tbaa !8
  call void @Bac_ManFree(ptr noundef %131)
  %132 = load ptr, ptr %10, align 8, !tbaa !51
  %133 = icmp eq ptr %132, null
  br i1 %133, label %134, label %136

134:                                              ; preds = %124
  %135 = load ptr, ptr %9, align 8, !tbaa !51
  call void @Gia_ManStop(ptr noundef %135)
  call void (i32, ptr, ...) @Abc_Print(i32 noundef -1, ptr noundef @.str.84)
  store i32 0, ptr %4, align 4
  store i32 1, ptr %22, align 4
  br label %166

136:                                              ; preds = %124
  %137 = load ptr, ptr %9, align 8, !tbaa !51
  %138 = load ptr, ptr %10, align 8, !tbaa !51
  %139 = load ptr, ptr %13, align 8, !tbaa !57
  %140 = getelementptr inbounds nuw %struct.Cec_ParCec_t_, ptr %139, i32 0, i32 7
  %141 = load i32, ptr %140, align 4, !tbaa !59
  %142 = call ptr @Gia_ManMiter(ptr noundef %137, ptr noundef %138, i32 noundef 0, i32 noundef 1, i32 noundef 0, i32 noundef 0, i32 noundef %141)
  store ptr %142, ptr %11, align 8, !tbaa !51
  %143 = load ptr, ptr %11, align 8, !tbaa !51
  %144 = icmp ne ptr %143, null
  br i1 %144, label %145, label %157

145:                                              ; preds = %136
  %146 = load i32, ptr %20, align 4, !tbaa !28
  %147 = icmp ne i32 %146, 0
  br i1 %147, label %148, label %150

148:                                              ; preds = %145
  call void (i32, ptr, ...) @Abc_Print(i32 noundef 0, ptr noundef @.str.85, ptr noundef @.str.86)
  %149 = load ptr, ptr %11, align 8, !tbaa !51
  call void @Gia_AigerWrite(ptr noundef %149, ptr noundef @.str.86, i32 noundef 0, i32 noundef 0, i32 noundef 0)
  br label %150

150:                                              ; preds = %148, %145
  %151 = load ptr, ptr %11, align 8, !tbaa !51
  %152 = load ptr, ptr %13, align 8, !tbaa !57
  %153 = call i32 @Cec_ManVerify(ptr noundef %151, ptr noundef %152)
  %154 = load ptr, ptr %5, align 8, !tbaa !10
  %155 = getelementptr inbounds nuw %struct.Abc_Frame_t_, ptr %154, i32 0, i32 57
  store i32 %153, ptr %155, align 8, !tbaa !64
  %156 = load ptr, ptr %11, align 8, !tbaa !51
  call void @Gia_ManStop(ptr noundef %156)
  br label %157

157:                                              ; preds = %150, %136
  %158 = load ptr, ptr %9, align 8, !tbaa !51
  call void @Gia_ManStop(ptr noundef %158)
  %159 = load ptr, ptr %10, align 8, !tbaa !51
  call void @Gia_ManStop(ptr noundef %159)
  store i32 0, ptr %4, align 4
  store i32 1, ptr %22, align 4
  br label %166

160:                                              ; preds = %39, %38
  call void (i32, ptr, ...) @Abc_Print(i32 noundef -2, ptr noundef @.str.87)
  call void (i32, ptr, ...) @Abc_Print(i32 noundef -2, ptr noundef @.str.88)
  %161 = load ptr, ptr %13, align 8, !tbaa !57
  %162 = getelementptr inbounds nuw %struct.Cec_ParCec_t_, ptr %161, i32 0, i32 7
  %163 = load i32, ptr %162, align 4, !tbaa !59
  %164 = icmp ne i32 %163, 0
  %165 = select i1 %164, ptr @.str.31, ptr @.str.32
  call void (i32, ptr, ...) @Abc_Print(i32 noundef -2, ptr noundef @.str.34, ptr noundef %165)
  call void (i32, ptr, ...) @Abc_Print(i32 noundef -2, ptr noundef @.str.35)
  store i32 1, ptr %4, align 4
  store i32 1, ptr %22, align 4
  br label %166

166:                                              ; preds = %160, %157, %134, %105, %97, %60, %44
  call void @llvm.lifetime.end.p0(i64 8, ptr %21) #10
  call void @llvm.lifetime.end.p0(i64 4, ptr %20) #10
  call void @llvm.lifetime.end.p0(i64 4, ptr %19) #10
  call void @llvm.lifetime.end.p0(i64 4, ptr %18) #10
  call void @llvm.lifetime.end.p0(i64 8, ptr %17) #10
  call void @llvm.lifetime.end.p0(i64 8, ptr %16) #10
  call void @llvm.lifetime.end.p0(i64 8, ptr %15) #10
  call void @llvm.lifetime.end.p0(i64 8, ptr %14) #10
  call void @llvm.lifetime.end.p0(i64 8, ptr %13) #10
  call void @llvm.lifetime.end.p0(i64 36, ptr %12) #10
  call void @llvm.lifetime.end.p0(i64 8, ptr %11) #10
  call void @llvm.lifetime.end.p0(i64 8, ptr %10) #10
  call void @llvm.lifetime.end.p0(i64 8, ptr %9) #10
  call void @llvm.lifetime.end.p0(i64 8, ptr %8) #10
  %167 = load i32, ptr %4, align 4
  ret i32 %167
}