; Function Attrs: nounwind uwtable
define internal range(i32 0, 2) i32 @Bac_CommandCec(ptr noundef captures(none) %0, i32 noundef %1, ptr noundef %2) #0 {
  %4 = alloca %struct.Cec_ParCec_t_, align 4
  %5 = getelementptr i8, ptr %0, i64 528
  %.val = load ptr, ptr %5, align 8, !tbaa !3
  call void @llvm.lifetime.start.p0(i64 36, ptr nonnull %4) #14
  call void @Cec_ManCecSetDefaultParams(ptr noundef nonnull %4) #14
  call void (...) @Extra_UtilGetoptReset() #14
  %6 = getelementptr inbounds nuw i8, ptr %4, i64 28
  br label %7

7:                                                ; preds = %9, %3
  %8 = call i32 @Extra_UtilGetopt(i32 noundef %1, ptr noundef %2, ptr noundef nonnull @.str.78) #14
  switch i32 %8, label %68 [
    i32 -1, label %12
    i32 118, label %9
  ]

9:                                                ; preds = %7
  %10 = load i32, ptr %6, align 4, !tbaa !74
  %11 = xor i32 %10, 1
  store i32 %11, ptr %6, align 4, !tbaa !74
  br label %7, !llvm.loop !76

12:                                               ; preds = %7
  %13 = icmp eq ptr %.val, null
  br i1 %13, label %14, label %15

14:                                               ; preds = %12
  call void (i32, ptr, ...) @Abc_Print(i32 noundef 1, ptr noundef nonnull @.str.81)
  br label %71

15:                                               ; preds = %12
  %16 = load i32, ptr @globalUtilOptind, align 4, !tbaa !25
  %17 = sub nsw i32 %1, %16
  %.not61 = icmp eq i32 %17, 1
  br i1 %.not61, label %23, label %18

18:                                               ; preds = %15
  %19 = getelementptr inbounds nuw i8, ptr %.val, i64 8
  %20 = load ptr, ptr %19, align 8, !tbaa !27
  %21 = icmp eq ptr %20, null
  br i1 %21, label %22, label %27

22:                                               ; preds = %18
  call void (i32, ptr, ...) @Abc_Print(i32 noundef -1, ptr noundef nonnull @.str.82)
  br label %71

23:                                               ; preds = %15
  %24 = sext i32 %16 to i64
  %25 = getelementptr inbounds ptr, ptr %2, i64 %24
  %26 = load ptr, ptr %25, align 8, !tbaa !26
  br label %27

27:                                               ; preds = %18, %23
  %.050 = phi ptr [ %26, %23 ], [ %20, %18 ]
  br label %28

28:                                               ; preds = %31, %27
  %.051 = phi ptr [ %.050, %27 ], [ %32, %31 ]
  %29 = load i8, ptr %.051, align 1, !tbaa !53
  switch i8 %29, label %31 [
    i8 0, label %33
    i8 62, label %30
  ]

30:                                               ; preds = %28
  store i8 92, ptr %.051, align 1, !tbaa !53
  br label %31

31:                                               ; preds = %28, %30
  %32 = getelementptr inbounds nuw i8, ptr %.051, i64 1
  br label %28, !llvm.loop !77

33:                                               ; preds = %28
  %34 = call noalias ptr @fopen(ptr noundef %.050, ptr noundef nonnull @.str.15)
  %35 = icmp eq ptr %34, null
  br i1 %35, label %36, label %40

36:                                               ; preds = %33
  call void (i32, ptr, ...) @Abc_Print(i32 noundef -1, ptr noundef nonnull @.str.16, ptr noundef %.050)
  %37 = call ptr @Extra_FileGetSimilarName(ptr noundef %.050, ptr noundef nonnull @.str.17, ptr noundef nonnull @.str.18, ptr noundef null, ptr noundef null, ptr noundef null) #14
  %.not66 = icmp eq ptr %37, null
  br i1 %.not66, label %39, label %38

38:                                               ; preds = %36
  call void (i32, ptr, ...) @Abc_Print(i32 noundef 1, ptr noundef nonnull @.str.21, ptr noundef nonnull %37)
  br label %39

39:                                               ; preds = %38, %36
  call void (i32, ptr, ...) @Abc_Print(i32 noundef 1, ptr noundef nonnull @.str.22)
  br label %71

40:                                               ; preds = %33
  %41 = call i32 @fclose(ptr noundef nonnull %34)
  %42 = call ptr @Bac_ManExtract(ptr noundef nonnull %.val, i32 noundef 0, i32 noundef 0) #14
  %43 = icmp eq ptr %42, null
  br i1 %43, label %44, label %45

44:                                               ; preds = %40
  call void (i32, ptr, ...) @Abc_Print(i32 noundef -1, ptr noundef nonnull @.str.83)
  br label %71

45:                                               ; preds = %40
  %46 = call ptr @Extra_FileNameExtension(ptr noundef %.050) #14
  %47 = call i32 @strcmp(ptr noundef nonnull dereferenceable(1) %46, ptr noundef nonnull dereferenceable(5) @.str.23) #15
  %.not63 = icmp eq i32 %47, 0
  br i1 %.not63, label %48, label %sub_0

48:                                               ; preds = %45
  %49 = call ptr @Psr_ManReadBlif(ptr noundef %.050) #14
  br label %.tail.thread

sub_0:                                            ; preds = %45
  %50 = call ptr @Extra_FileNameExtension(ptr noundef %.050) #14
  %51 = load i8, ptr %50, align 1
  %.not = icmp eq i8 %51, 118
  br i1 %.not, label %.tail, label %.tail.thread

.tail:                                            ; preds = %sub_0
  %52 = getelementptr inbounds nuw i8, ptr %50, i64 1
  %53 = load i8, ptr %52, align 1
  %54 = icmp eq i8 %53, 0
  br i1 %54, label %55, label %.tail.thread

55:                                               ; preds = %.tail
  %56 = call ptr @Psr_ManReadVerilog(ptr noundef %.050) #14
  br label %.tail.thread

.tail.thread:                                     ; preds = %sub_0, %55, %.tail, %48
  %.049 = phi ptr [ undef, %.tail ], [ %56, %55 ], [ %49, %48 ], [ undef, %sub_0 ]
  %57 = call ptr @Psr_ManBuildCba(ptr noundef %.050, ptr noundef %.049) #14
  call fastcc void @Psr_ManVecFree(ptr noundef %.049)
  %58 = call ptr @Bac_ManExtract(ptr noundef %57, i32 noundef 0, i32 noundef 0) #14
  call fastcc void @Bac_ManFree(ptr noundef %57)
  %59 = icmp eq ptr %58, null
  br i1 %59, label %60, label %61

60:                                               ; preds = %.tail.thread
  call void @Gia_ManStop(ptr noundef nonnull %42) #14
  call void (i32, ptr, ...) @Abc_Print(i32 noundef -1, ptr noundef nonnull @.str.84)
  br label %71

61:                                               ; preds = %.tail.thread
  %62 = load i32, ptr %6, align 4, !tbaa !74
  %63 = call ptr @Gia_ManMiter(ptr noundef nonnull %42, ptr noundef nonnull %58, i32 noundef 0, i32 noundef 1, i32 noundef 0, i32 noundef 0, i32 noundef %62) #14
  %.not65 = icmp eq ptr %63, null
  br i1 %.not65, label %67, label %64

64:                                               ; preds = %61
  %65 = call i32 @Cec_ManVerify(ptr noundef nonnull %63, ptr noundef nonnull %4) #14
  %66 = getelementptr inbounds nuw i8, ptr %0, i64 400
  store i32 %65, ptr %66, align 8, !tbaa !78
  call void @Gia_ManStop(ptr noundef nonnull %63) #14
  br label %67

67:                                               ; preds = %64, %61
  call void @Gia_ManStop(ptr noundef nonnull %42) #14
  call void @Gia_ManStop(ptr noundef nonnull %58) #14
  br label %71

68:                                               ; preds = %7
  call void (i32, ptr, ...) @Abc_Print(i32 noundef -2, ptr noundef nonnull @.str.87)
  call void (i32, ptr, ...) @Abc_Print(i32 noundef -2, ptr noundef nonnull @.str.88)
  %69 = load i32, ptr %6, align 4, !tbaa !74
  %.not67 = icmp eq i32 %69, 0
  %70 = select i1 %.not67, ptr @.str.32, ptr @.str.31
  call void (i32, ptr, ...) @Abc_Print(i32 noundef -2, ptr noundef nonnull @.str.34, ptr noundef nonnull %70)
  call void (i32, ptr, ...) @Abc_Print(i32 noundef -2, ptr noundef nonnull @.str.35)
  br label %71

71:                                               ; preds = %68, %67, %60, %44, %39, %22, %14
  %.0 = phi i32 [ 1, %68 ], [ 0, %14 ], [ 1, %22 ], [ 1, %39 ], [ 0, %44 ], [ 0, %60 ], [ 0, %67 ]
  call void @llvm.lifetime.end.p0(i64 36, ptr nonnull %4) #14
  ret i32 %.0
}